; Function Attrs: mustprogress uwtable
define void @_ZN32pxrInternal_v0_24__pxrReserved__22Vt_DefaultValueFactoryINS_7GfVec2iEE6InvokeEv(ptr dead_on_unwind noalias nocapture writable writeonly sret(%"struct.pxrInternal_v0_24__pxrReserved__::Vt_DefaultValueHolder") align 8 %0) local_unnamed_addr #0 align 2 personality ptr @__gxx_personality_v0 {
  %2 = tail call i64 @_ZN32pxrInternal_v0_24__pxrReserved__6VtZeroINS_7GfVec2iEEET_v()
  tail call void @llvm.experimental.noalias.scope.decl(metadata !81)
  %3 = tail call noalias noundef nonnull dereferenceable(8) ptr @_Znwm(i64 noundef 8) #23, !noalias !84
  store i64 %2, ptr %3, align 8, !noalias !84
  store ptr %3, ptr %0, align 8, !alias.scope !81
  %4 = getelementptr inbounds nuw i8, ptr %0, i64 8
  store ptr @_ZN32pxrInternal_v0_24__pxrReserved__14TfAnyUniquePtr7_DeleteINS_7GfVec2iEEEvPKv, ptr %4, align 8, !alias.scope !81
  %5 = getelementptr inbounds nuw i8, ptr %0, i64 16
  store ptr @_ZTIN32pxrInternal_v0_24__pxrReserved__7GfVec2iE, ptr %5, align 8, !alias.scope !81
  ret void
}